target datalayout = "e-m:e-p270:32:32-p271:32:32-p272:64:64-i64:64-i128:128-f80:128-n8:16:32:64-S128"
target triple = "x86_64-pc-linux-gnu"

@ClientAuthInProgress = external global i8, align 1
@MyProcPid = external global i32, align 4

; Function Attrs: nounwind uwtable
define internal void @StatementTimeoutHandler() #0 {
  %1 = alloca i32, align 4
  call void @llvm.lifetime.start.p0(i64 4, ptr %1) #8
  store i32 2, ptr %1, align 4
  %2 = load i8, ptr @ClientAuthInProgress, align 1, !range !6, !noundef !7
  %3 = trunc i8 %2 to i1
  br i1 %3, label %4, label %5

4:                                                ; preds = %0
  store i32 15, ptr %1, align 4
  br label %5

5:                                                ; preds = %4, %0
  %6 = load i32, ptr @MyProcPid, align 4
  %7 = sub i32 0, %6
  %8 = load i32, ptr %1, align 4
  %9 = call i32 @kill(i32 noundef %7, i32 noundef %8) #8
  %10 = load i32, ptr @MyProcPid, align 4
  %11 = load i32, ptr %1, align 4
  %12 = call i32 @kill(i32 noundef %10, i32 noundef %11) #8
  call void @llvm.lifetime.end.p0(i64 4, ptr %1) #8
  ret void
}