; Function Attrs: nounwind uwtable
define internal void @StatementTimeoutHandler() #0 {
  %1 = load i8, ptr @ClientAuthInProgress, align 1, !range !8, !noundef !9
  %2 = trunc nuw i8 %1 to i1
  %spec.store.select = select i1 %2, i32 15, i32 2
  %3 = load i32, ptr @MyProcPid, align 4
  %4 = sub i32 0, %3
  %5 = tail call i32 @kill(i32 noundef %4, i32 noundef %spec.store.select) #12
  %6 = load i32, ptr @MyProcPid, align 4
  %7 = tail call i32 @kill(i32 noundef %6, i32 noundef %spec.store.select) #12
  ret void
}